; ModuleID = 'source-C-CXX/39/1844.c'
source_filename = "source-C-CXX/39/1844.c"
target datalayout = "e-m:e-p270:32:32-p271:32:32-p272:64:64-i64:64-f80:128-n8:16:32:64-S128"
target triple = "x86_64-pc-linux-gnu"

@.str = private unnamed_addr constant [16 x i8] c"%lf%lf%lf%lf%lf\00", align 1
@.str.1 = private unnamed_addr constant [14 x i8] c"Invalid input\00", align 1
@.str.2 = private unnamed_addr constant [6 x i8] c"%.4lf\00", align 1

; Function Attrs: mustprogress nofree nounwind sspstrong uwtable willreturn
define dso_local double @mj(float %0, float %1, float %2, float %3, float %4) local_unnamed_addr #0 {
  %6 = fadd float %0, %1
  %7 = fadd float %6, %2
  %8 = fadd float %7, %3
  %9 = fmul float %8, 5.000000e-01
  %10 = fpext float %9 to double
  %11 = fpext float %0 to double
  %12 = fsub double %10, %11
  %13 = fpext float %1 to double
  %14 = fsub double %10, %13
  %15 = fmul double %12, %14
  %16 = fpext float %2 to double
  %17 = fsub double %10, %16
  %18 = fmul double %17, %15
  %19 = fpext float %3 to double
  %20 = fsub double %10, %19
  %21 = fmul double %20, %18
  %22 = fmul float %0, %1
  %23 = fmul float %22, %2
  %24 = fmul float %23, %3
  %25 = fpext float %24 to double
  %26 = fpext float %4 to double
  %27 = tail call double @cos(double %26) #5
  %28 = fmul double %27, %25
  %29 = tail call double @cos(double %26) #5
  %30 = fmul double %28, %29
  %31 = fsub double %21, %30
  %32 = tail call double @sqrt(double %31) #5
  ret double %32
}

; Function Attrs: argmemonly mustprogress nofree nosync nounwind willreturn
declare void @llvm.lifetime.start.p0i8(i64 immarg, i8* nocapture) #1

; Function Attrs: mustprogress nofree nounwind willreturn
declare double @sqrt(double) local_unnamed_addr #2

; Function Attrs: mustprogress nofree nounwind willreturn
declare double @cos(double) local_unnamed_addr #2

; Function Attrs: argmemonly mustprogress nofree nosync nounwind willreturn
declare void @llvm.lifetime.end.p0i8(i64 immarg, i8* nocapture) #1

; Function Attrs: nofree nounwind sspstrong uwtable
define dso_local double @main() local_unnamed_addr #3 {
  %1 = alloca double, align 8
  %2 = alloca double, align 8
  %3 = alloca double, align 8
  %4 = alloca double, align 8
  %5 = alloca double, align 8
  %6 = bitcast double* %1 to i8*
  call void @llvm.lifetime.start.p0i8(i64 8, i8* nonnull %6) #5
  %7 = bitcast double* %2 to i8*
  call void @llvm.lifetime.start.p0i8(i64 8, i8* nonnull %7) #5
  %8 = bitcast double* %3 to i8*
  call void @llvm.lifetime.start.p0i8(i64 8, i8* nonnull %8) #5
  %9 = bitcast double* %4 to i8*
  call void @llvm.lifetime.start.p0i8(i64 8, i8* nonnull %9) #5
  %10 = bitcast double* %5 to i8*
  call void @llvm.lifetime.start.p0i8(i64 8, i8* nonnull %10) #5
  %11 = call i32 (i8*, ...) @__isoc99_scanf(i8* getelementptr inbounds ([16 x i8], [16 x i8]* @.str, i64 0, i64 0), double* nonnull %1, double* nonnull %2, double* nonnull %3, double* nonnull %4, double* nonnull %5)
  %12 = load double, double* %1, align 8, !tbaa !5
  %13 = load double, double* %2, align 8, !tbaa !5
  %14 = fadd double %12, %13
  %15 = load double, double* %3, align 8, !tbaa !5
  %16 = fadd double %14, %15
  %17 = load double, double* %4, align 8, !tbaa !5
  %18 = fadd double %16, %17
  %19 = fmul double %18, 5.000000e-01
  %20 = load double, double* %5, align 8, !tbaa !5
  %21 = fmul double %20, 5.000000e-01
  %22 = fmul double %21, 0x400921FB4D12D84A
  %23 = fdiv double %22, 1.800000e+02
  %24 = fsub double %19, %12
  %25 = fsub double %19, %13
  %26 = fmul double %24, %25
  %27 = fsub double %19, %15
  %28 = fmul double %27, %26
  %29 = fsub double %19, %17
  %30 = fmul double %29, %28
  %31 = fmul double %12, %13
  %32 = fmul double %31, %15
  %33 = fmul double %32, %17
  %34 = call double @cos(double %23) #5
  %35 = fmul double %33, %34
  %36 = call double @cos(double %23) #5
  %37 = fmul double %35, %36
  %38 = fsub double %30, %37
  %39 = fcmp olt double %38, 0.000000e+00
  br i1 %39, label %40, label %42

40:                                               ; preds = %0
  %41 = call i32 (i8*, ...) @printf(i8* nonnull dereferenceable(1) getelementptr inbounds ([14 x i8], [14 x i8]* @.str.1, i64 0, i64 0))
  br label %80

42:                                               ; preds = %0
  %43 = load double, double* %1, align 8, !tbaa !5
  %44 = fptrunc double %43 to float
  %45 = load double, double* %2, align 8, !tbaa !5
  %46 = fptrunc double %45 to float
  %47 = load double, double* %3, align 8, !tbaa !5
  %48 = fptrunc double %47 to float
  %49 = load double, double* %4, align 8, !tbaa !5
  %50 = fptrunc double %49 to float
  %51 = fptrunc double %23 to float
  %52 = fadd float %44, %46
  %53 = fadd float %52, %48
  %54 = fadd float %53, %50
  %55 = fmul float %54, 5.000000e-01
  %56 = fpext float %55 to double
  %57 = fpext float %44 to double
  %58 = fsub double %56, %57
  %59 = fpext float %46 to double
  %60 = fsub double %56, %59
  %61 = fmul double %58, %60
  %62 = fpext float %48 to double
  %63 = fsub double %56, %62
  %64 = fmul double %63, %61
  %65 = fpext float %50 to double
  %66 = fsub double %56, %65
  %67 = fmul double %66, %64
  %68 = fmul float %44, %46
  %69 = fmul float %68, %48
  %70 = fmul float %69, %50
  %71 = fpext float %70 to double
  %72 = fpext float %51 to double
  %73 = call double @cos(double %72) #5
  %74 = fmul double %73, %71
  %75 = call double @cos(double %72) #5
  %76 = fmul double %75, %74
  %77 = fsub double %67, %76
  %78 = call double @sqrt(double %77) #5
  %79 = call i32 (i8*, ...) @printf(i8* nonnull dereferenceable(1) getelementptr inbounds ([6 x i8], [6 x i8]* @.str.2, i64 0, i64 0), double %78)
  br label %80

80:                                               ; preds = %42, %40
  call void @llvm.lifetime.end.p0i8(i64 8, i8* nonnull %10) #5
  call void @llvm.lifetime.end.p0i8(i64 8, i8* nonnull %9) #5
  call void @llvm.lifetime.end.p0i8(i64 8, i8* nonnull %8) #5
  call void @llvm.lifetime.end.p0i8(i64 8, i8* nonnull %7) #5
  call void @llvm.lifetime.end.p0i8(i64 8, i8* nonnull %6) #5
  ret double undef
}

; Function Attrs: nofree nounwind
declare noundef i32 @__isoc99_scanf(i8* nocapture noundef readonly, ...) local_unnamed_addr #4

; Function Attrs: nofree nounwind
declare noundef i32 @printf(i8* nocapture noundef readonly, ...) local_unnamed_addr #4


!llvm.module.flags = !{!0, !1, !2, !3}
!llvm.ident = !{!4}

!0 = !{i32 1, !"wchar_size", i32 4}
!1 = !{i32 7, !"PIC Level", i32 2}
!2 = !{i32 7, !"PIE Level", i32 2}
!3 = !{i32 7, !"uwtable", i32 1}
!4 = !{!"clang version 13.0.0"}
!5 = !{!6, !6, i64 0}
!6 = !{!"double", !7, i64 0}
!7 = !{!"omnipotent char", !8, i64 0}
!8 = !{!"Simple C/C++ TBAA"}
